; Function Attrs: mustprogress uwtable
define void @_ZNK8QuantLib21MakeCreditDefaultSwapcvNS_17CreditDefaultSwapEEv(ptr dead_on_unwind noalias writable sret(%"class.QuantLib::CreditDefaultSwap") align 8 %agg.result, ptr noundef nonnull align 8 dereferenceable(136) %this) local_unnamed_addr #7 align 2 personality ptr @__gxx_personality_v0 {
entry:
  %swap = alloca %"class.boost::shared_ptr.40", align 8
  call void @llvm.lifetime.start.p0(i64 16, ptr nonnull %swap) #21
  call void @_ZNK8QuantLib21MakeCreditDefaultSwapcvN5boost10shared_ptrINS_17CreditDefaultSwapEEEEv(ptr dead_on_unwind nonnull writable sret(%"class.boost::shared_ptr.40") align 8 %swap, ptr noundef nonnull align 8 dereferenceable(136) %this)
  %0 = load ptr, ptr %swap, align 8, !tbaa !62
  %cmp.not.i = icmp eq ptr %0, null
  br i1 %cmp.not.i, label %cond.false.i, label %invoke.cont, !prof !64

cond.false.i:                                     ; preds = %entry
  invoke void @_ZN5boost16assertion_failedEPKcS1_S1_l(ptr noundef nonnull @.str.8, ptr noundef nonnull @__PRETTY_FUNCTION__._ZNK5boost10shared_ptrIN8QuantLib17CreditDefaultSwapEEdeEv, ptr noundef nonnull @.str.9, i64 noundef 778)
          to label %.noexc unwind label %lpad

.noexc:                                           ; preds = %cond.false.i
  %.pre.i = load ptr, ptr %swap, align 8, !tbaa !62
  br label %invoke.cont

invoke.cont:                                      ; preds = %.noexc, %entry
  %1 = phi ptr [ %0, %entry ], [ %.pre.i, %.noexc ]
  invoke void @_ZN8QuantLib17CreditDefaultSwapC1ERKS0_(ptr noundef nonnull align 8 dereferenceable(320) %agg.result, ptr noundef nonnull align 8 dereferenceable(320) %1)
          to label %invoke.cont2 unwind label %lpad

invoke.cont2:                                     ; preds = %invoke.cont
  %pn.i = getelementptr inbounds nuw i8, ptr %swap, i64 8
  %2 = load ptr, ptr %pn.i, align 8, !tbaa !58
  %cmp.not.i.i = icmp eq ptr %2, null
  br i1 %cmp.not.i.i, label %_ZN5boost10shared_ptrIN8QuantLib17CreditDefaultSwapEED2Ev.exit, label %if.then.i.i

if.then.i.i:                                      ; preds = %invoke.cont2
  %use_count_.i.i.i = getelementptr inbounds nuw i8, ptr %2, i64 8
  %3 = atomicrmw sub ptr %use_count_.i.i.i, i32 1 acq_rel, align 4
  %cmp.i.i.i = icmp eq i32 %3, 1
  br i1 %cmp.i.i.i, label %if.then.i.i.i, label %_ZN5boost10shared_ptrIN8QuantLib17CreditDefaultSwapEED2Ev.exit

if.then.i.i.i:                                    ; preds = %if.then.i.i
  %vtable.i.i.i = load ptr, ptr %2, align 8, !tbaa !52
  %vfn.i.i.i = getelementptr inbounds i8, ptr %vtable.i.i.i, i64 16
  %4 = load ptr, ptr %vfn.i.i.i, align 8
  invoke void %4(ptr noundef nonnull align 8 dereferenceable(16) %2)
          to label %.noexc.i.i unwind label %terminate.lpad.i.i

.noexc.i.i:                                       ; preds = %if.then.i.i.i
  %weak_count_.i.i.i.i = getelementptr inbounds nuw i8, ptr %2, i64 12
  %5 = atomicrmw sub ptr %weak_count_.i.i.i.i, i32 1 acq_rel, align 4
  %cmp.i.i.i.i = icmp eq i32 %5, 1
  br i1 %cmp.i.i.i.i, label %if.then.i.i.i.i, label %_ZN5boost10shared_ptrIN8QuantLib17CreditDefaultSwapEED2Ev.exit

if.then.i.i.i.i:                                  ; preds = %.noexc.i.i
  %vtable.i.i.i.i = load ptr, ptr %2, align 8, !tbaa !52
  %vfn.i.i.i.i = getelementptr inbounds i8, ptr %vtable.i.i.i.i, i64 24
  %6 = load ptr, ptr %vfn.i.i.i.i, align 8
  invoke void %6(ptr noundef nonnull align 8 dereferenceable(16) %2)
          to label %_ZN5boost10shared_ptrIN8QuantLib17CreditDefaultSwapEED2Ev.exit unwind label %terminate.lpad.i.i

terminate.lpad.i.i:                               ; preds = %if.then.i.i.i.i, %if.then.i.i.i
  %7 = landingpad { ptr, i32 }
          catch ptr null
  %8 = extractvalue { ptr, i32 } %7, 0
  call void @__clang_call_terminate(ptr %8) #22
  unreachable

_ZN5boost10shared_ptrIN8QuantLib17CreditDefaultSwapEED2Ev.exit: ; preds = %invoke.cont2, %if.then.i.i, %.noexc.i.i, %if.then.i.i.i.i
  call void @llvm.lifetime.end.p0(i64 16, ptr nonnull %swap) #21
  ret void

lpad:                                             ; preds = %cond.false.i, %invoke.cont
  %9 = landingpad { ptr, i32 }
          cleanup
  call void @_ZN5boost10shared_ptrIN8QuantLib17CreditDefaultSwapEED2Ev(ptr noundef nonnull align 8 dereferenceable(16) %swap) #21
  call void @llvm.lifetime.end.p0(i64 16, ptr nonnull %swap) #21
  resume { ptr, i32 } %9
}